target datalayout = "e-m:e-p270:32:32-p271:32:32-p272:64:64-i64:64-i128:128-f80:128-n8:16:32:64-S128"
target triple = "x86_64-pc-linux-gnu"

%"class.llvm::SmallVectorBase" = type { ptr, i32, i32 }
%struct.OperationIndices.447 = type { i32, i64, i64 }

; Function Attrs: mustprogress nounwind uwtable
define internal noundef ptr @_ZN4llvm25SmallVectorTemplateCommonIZL22costAndCollectOperandsINS_12SCEVUDivExprEENS_15InstructionCostERKNS_11SCEVOperandERKNS_19TargetTransformInfoENS7_14TargetCostKindERNS_15SmallVectorImplIS4_EEE16OperationIndicesvE5beginEv(ptr noundef nonnull align 8 dereferenceable(16) %0) #1 align 2 {
  %2 = alloca ptr, align 8
  store ptr %0, ptr %2, align 8
  %3 = load ptr, ptr %2, align 8
  %4 = getelementptr inbounds nuw %"class.llvm::SmallVectorBase", ptr %3, i32 0, i32 0
  %5 = load ptr, ptr %4, align 8
  ret ptr %5
}

; Function Attrs: mustprogress nounwind uwtable
define internal noundef nonnull align 8 dereferenceable(24) ptr @_ZN4llvm25SmallVectorTemplateCommonIZL22costAndCollectOperandsINS_12SCEVUDivExprEENS_15InstructionCostERKNS_11SCEVOperandERKNS_19TargetTransformInfoENS7_14TargetCostKindERNS_15SmallVectorImplIS4_EEE16OperationIndicesvE4backEv(ptr noundef nonnull align 8 dereferenceable(16) %0) #1 align 2 {
  %2 = alloca ptr, align 8
  store ptr %0, ptr %2, align 8
  %3 = load ptr, ptr %2, align 8
  %4 = call noundef ptr @_ZN4llvm25SmallVectorTemplateCommonIZL22costAndCollectOperandsINS_12SCEVUDivExprEENS_15InstructionCostERKNS_11SCEVOperandERKNS_19TargetTransformInfoENS7_14TargetCostKindERNS_15SmallVectorImplIS4_EEE16OperationIndicesvE3endEv(ptr noundef nonnull align 8 dereferenceable(16) %3)
  %5 = getelementptr inbounds %struct.OperationIndices.447, ptr %4, i64 -1
  ret ptr %5
}

; Function Attrs: mustprogress nounwind uwtable
define internal void @_ZZL22costAndCollectOperandsIN4llvm12SCEVUDivExprEENS0_15InstructionCostERKNS0_11SCEVOperandERKNS0_19TargetTransformInfoENS6_14TargetCostKindERNS0_15SmallVectorImplIS3_EEEN16OperationIndicesC2Ejmm(ptr noundef nonnull align 8 dereferenceable(24) %0, i32 noundef %1, i64 noundef %2, i64 noundef %3) unnamed_addr #1 align 2 {
  %5 = alloca ptr, align 8
  %6 = alloca i32, align 4
  %7 = alloca i64, align 8
  %8 = alloca i64, align 8
  store ptr %0, ptr %5, align 8
  store i32 %1, ptr %6, align 4
  store i64 %2, ptr %7, align 8
  store i64 %3, ptr %8, align 8
  %9 = load ptr, ptr %5, align 8
  %10 = getelementptr inbounds nuw %struct.OperationIndices.447, ptr %9, i32 0, i32 0
  %11 = load i32, ptr %6, align 4
  store i32 %11, ptr %10, align 8
  %12 = getelementptr inbounds nuw %struct.OperationIndices.447, ptr %9, i32 0, i32 1
  %13 = load i64, ptr %7, align 8
  store i64 %13, ptr %12, align 8
  %14 = getelementptr inbounds nuw %struct.OperationIndices.447, ptr %9, i32 0, i32 2
  %15 = load i64, ptr %8, align 8
  store i64 %15, ptr %14, align 8
  ret void
}

; Function Attrs: mustprogress nounwind uwtable
define internal noundef ptr @_ZN4llvm25SmallVectorTemplateCommonIZL22costAndCollectOperandsINS_12SCEVUDivExprEENS_15InstructionCostERKNS_11SCEVOperandERKNS_19TargetTransformInfoENS7_14TargetCostKindERNS_15SmallVectorImplIS4_EEE16OperationIndicesvE3endEv(ptr noundef nonnull align 8 dereferenceable(16) %0) #1 align 2 {
  %2 = alloca ptr, align 8
  store ptr %0, ptr %2, align 8
  %3 = load ptr, ptr %2, align 8
  %4 = call noundef ptr @_ZN4llvm25SmallVectorTemplateCommonIZL22costAndCollectOperandsINS_12SCEVUDivExprEENS_15InstructionCostERKNS_11SCEVOperandERKNS_19TargetTransformInfoENS7_14TargetCostKindERNS_15SmallVectorImplIS4_EEE16OperationIndicesvE5beginEv(ptr noundef nonnull align 8 dereferenceable(16) %3)
  %5 = call noundef i64 @_ZNK4llvm15SmallVectorBaseIjE4sizeEv(ptr noundef nonnull align 8 dereferenceable(16) %3)
  %6 = getelementptr inbounds %struct.OperationIndices.447, ptr %4, i64 %5
  ret ptr %6
}

; Function Attrs: mustprogress nounwind uwtable
define internal noundef nonnull align 8 dereferenceable(24) ptr @_ZN4llvm23SmallVectorTemplateBaseIZL22costAndCollectOperandsINS_12SCEVUDivExprEENS_15InstructionCostERKNS_11SCEVOperandERKNS_19TargetTransformInfoENS7_14TargetCostKindERNS_15SmallVectorImplIS4_EEE16OperationIndicesLb1EE18growAndEmplaceBackIJRjSH_SH_EEERSE_DpOT_(ptr noundef nonnull align 8 dereferenceable(16) %0, ptr noundef nonnull align 4 dereferenceable(4) %1, ptr noundef nonnull align 4 dereferenceable(4) %2, ptr noundef nonnull align 4 dereferenceable(4) %3) #1 align 2 {
  %5 = alloca ptr, align 8
  %6 = alloca ptr, align 8
  %7 = alloca ptr, align 8
  %8 = alloca ptr, align 8
  %9 = alloca %struct.OperationIndices.447, align 8
  store ptr %0, ptr %5, align 8
  store ptr %1, ptr %6, align 8
  store ptr %2, ptr %7, align 8
  store ptr %3, ptr %8, align 8
  %10 = load ptr, ptr %5, align 8
  %11 = load ptr, ptr %6, align 8
  %12 = load i32, ptr %11, align 4
  %13 = load ptr, ptr %7, align 8
  %14 = load i32, ptr %13, align 4
  %15 = zext i32 %14 to i64
  %16 = load ptr, ptr %8, align 8
  %17 = load i32, ptr %16, align 4
  %18 = zext i32 %17 to i64
  call void @_ZZL22costAndCollectOperandsIN4llvm12SCEVUDivExprEENS0_15InstructionCostERKNS0_11SCEVOperandERKNS0_19TargetTransformInfoENS6_14TargetCostKindERNS0_15SmallVectorImplIS3_EEEN16OperationIndicesC2Ejmm(ptr noundef nonnull align 8 dereferenceable(24) %9, i32 noundef %12, i64 noundef %15, i64 noundef %18)
  call void @_ZN4llvm23SmallVectorTemplateBaseIZL22costAndCollectOperandsINS_12SCEVUDivExprEENS_15InstructionCostERKNS_11SCEVOperandERKNS_19TargetTransformInfoENS7_14TargetCostKindERNS_15SmallVectorImplIS4_EEE16OperationIndicesLb1EE9push_backERKSE_(ptr noundef nonnull align 8 dereferenceable(16) %10, ptr noundef nonnull align 8 dereferenceable(24) %9)
  %19 = call noundef nonnull align 8 dereferenceable(24) ptr @_ZN4llvm25SmallVectorTemplateCommonIZL22costAndCollectOperandsINS_12SCEVUDivExprEENS_15InstructionCostERKNS_11SCEVOperandERKNS_19TargetTransformInfoENS7_14TargetCostKindERNS_15SmallVectorImplIS4_EEE16OperationIndicesvE4backEv(ptr noundef nonnull align 8 dereferenceable(16) %10)
  ret ptr %19
}

; Function Attrs: mustprogress nounwind uwtable
define internal noundef nonnull align 8 dereferenceable(24) ptr @_ZN4llvm15SmallVectorImplIZL22costAndCollectOperandsINS_12SCEVUDivExprEENS_15InstructionCostERKNS_11SCEVOperandERKNS_19TargetTransformInfoENS7_14TargetCostKindERNS0_IS4_EEE16OperationIndicesE12emplace_backIJRjSG_SG_EEERSD_DpOT_(ptr noundef nonnull align 8 dereferenceable(16) %0, ptr noundef nonnull align 4 dereferenceable(4) %1, ptr noundef nonnull align 4 dereferenceable(4) %2, ptr noundef nonnull align 4 dereferenceable(4) %3) #1 align 2 {
  %5 = alloca ptr, align 8
  %6 = alloca ptr, align 8
  %7 = alloca ptr, align 8
  %8 = alloca ptr, align 8
  %9 = alloca ptr, align 8
  store ptr %0, ptr %6, align 8
  store ptr %1, ptr %7, align 8
  store ptr %2, ptr %8, align 8
  store ptr %3, ptr %9, align 8
  %10 = load ptr, ptr %6, align 8
  %11 = call noundef i64 @_ZNK4llvm15SmallVectorBaseIjE4sizeEv(ptr noundef nonnull align 8 dereferenceable(16) %10)
  %12 = call noundef i64 @_ZNK4llvm15SmallVectorBaseIjE8capacityEv(ptr noundef nonnull align 8 dereferenceable(16) %10)
  %13 = icmp uge i64 %11, %12
  br i1 %13, label %14, label %19

14:                                               ; preds = %4
  %15 = load ptr, ptr %7, align 8
  %16 = load ptr, ptr %8, align 8
  %17 = load ptr, ptr %9, align 8
  %18 = call noundef nonnull align 8 dereferenceable(24) ptr @_ZN4llvm23SmallVectorTemplateBaseIZL22costAndCollectOperandsINS_12SCEVUDivExprEENS_15InstructionCostERKNS_11SCEVOperandERKNS_19TargetTransformInfoENS7_14TargetCostKindERNS_15SmallVectorImplIS4_EEE16OperationIndicesLb1EE18growAndEmplaceBackIJRjSH_SH_EEERSE_DpOT_(ptr noundef nonnull align 8 dereferenceable(16) %10, ptr noundef nonnull align 4 dereferenceable(4) %15, ptr noundef nonnull align 4 dereferenceable(4) %16, ptr noundef nonnull align 4 dereferenceable(4) %17)
  store ptr %18, ptr %5, align 8
  br label %32

19:                                               ; preds = %4
  %20 = call noundef ptr @_ZN4llvm25SmallVectorTemplateCommonIZL22costAndCollectOperandsINS_12SCEVUDivExprEENS_15InstructionCostERKNS_11SCEVOperandERKNS_19TargetTransformInfoENS7_14TargetCostKindERNS_15SmallVectorImplIS4_EEE16OperationIndicesvE3endEv(ptr noundef nonnull align 8 dereferenceable(16) %10)
  %21 = load ptr, ptr %7, align 8
  %22 = load i32, ptr %21, align 4
  %23 = load ptr, ptr %8, align 8
  %24 = load i32, ptr %23, align 4
  %25 = zext i32 %24 to i64
  %26 = load ptr, ptr %9, align 8
  %27 = load i32, ptr %26, align 4
  %28 = zext i32 %27 to i64
  call void @_ZZL22costAndCollectOperandsIN4llvm12SCEVUDivExprEENS0_15InstructionCostERKNS0_11SCEVOperandERKNS0_19TargetTransformInfoENS6_14TargetCostKindERNS0_15SmallVectorImplIS3_EEEN16OperationIndicesC2Ejmm(ptr noundef nonnull align 8 dereferenceable(24) %20, i32 noundef %22, i64 noundef %25, i64 noundef %28)
  %29 = call noundef i64 @_ZNK4llvm15SmallVectorBaseIjE4sizeEv(ptr noundef nonnull align 8 dereferenceable(16) %10)
  %30 = add i64 %29, 1
  call void @_ZN4llvm15SmallVectorBaseIjE8set_sizeEm(ptr noundef nonnull align 8 dereferenceable(16) %10, i64 noundef %30)
  %31 = call noundef nonnull align 8 dereferenceable(24) ptr @_ZN4llvm25SmallVectorTemplateCommonIZL22costAndCollectOperandsINS_12SCEVUDivExprEENS_15InstructionCostERKNS_11SCEVOperandERKNS_19TargetTransformInfoENS7_14TargetCostKindERNS_15SmallVectorImplIS4_EEE16OperationIndicesvE4backEv(ptr noundef nonnull align 8 dereferenceable(16) %10)
  store ptr %31, ptr %5, align 8
  br label %32

32:                                               ; preds = %19, %14
  %33 = load ptr, ptr %5, align 8
  ret ptr %33
}